target datalayout = "e-m:e-p270:32:32-p271:32:32-p272:64:64-i64:64-i128:128-f80:128-n8:16:32:64-S128"
target triple = "x86_64-pc-linux-gnu"

%struct.avifFraction = type { i32, i32 }

; Function Attrs: nounwind uwtable
define internal i64 @calcGCD(i64 noundef %0, i64 noundef %1) #0 {
  %3 = alloca i64, align 8
  %4 = alloca i64, align 8
  %5 = alloca i64, align 8
  store i64 %0, ptr %3, align 8
  store i64 %1, ptr %4, align 8
  %6 = load i64, ptr %3, align 8
  %7 = icmp slt i64 %6, 0
  br i1 %7, label %8, label %11

8:                                                ; preds = %2
  %9 = load i64, ptr %3, align 8
  %10 = mul nsw i64 %9, -1
  store i64 %10, ptr %3, align 8
  br label %11

11:                                               ; preds = %8, %2
  %12 = load i64, ptr %4, align 8
  %13 = icmp slt i64 %12, 0
  br i1 %13, label %14, label %17

14:                                               ; preds = %11
  %15 = load i64, ptr %4, align 8
  %16 = mul nsw i64 %15, -1
  store i64 %16, ptr %4, align 8
  br label %17

17:                                               ; preds = %14, %11
  br label %18

18:                                               ; preds = %21, %17
  %19 = load i64, ptr %4, align 8
  %20 = icmp ne i64 %19, 0
  br i1 %20, label %21, label %27

21:                                               ; preds = %18
  %22 = load i64, ptr %3, align 8
  %23 = load i64, ptr %4, align 8
  %24 = srem i64 %22, %23
  store i64 %24, ptr %5, align 8
  %25 = load i64, ptr %4, align 8
  store i64 %25, ptr %3, align 8
  %26 = load i64, ptr %5, align 8
  store i64 %26, ptr %4, align 8
  br label %18, !llvm.loop !4

27:                                               ; preds = %18
  %28 = load i64, ptr %3, align 8
  ret i64 %28
}

; Function Attrs: nounwind uwtable
define hidden void @avifFractionSimplify(ptr noundef %0) #0 {
  %2 = alloca ptr, align 8
  %3 = alloca i64, align 8
  store ptr %0, ptr %2, align 8
  %4 = load ptr, ptr %2, align 8
  %5 = getelementptr inbounds nuw %struct.avifFraction, ptr %4, i32 0, i32 0
  %6 = load i32, ptr %5, align 4
  %7 = sext i32 %6 to i64
  %8 = load ptr, ptr %2, align 8
  %9 = getelementptr inbounds nuw %struct.avifFraction, ptr %8, i32 0, i32 1
  %10 = load i32, ptr %9, align 4
  %11 = sext i32 %10 to i64
  %12 = call i64 @calcGCD(i64 noundef %7, i64 noundef %11)
  store i64 %12, ptr %3, align 8
  %13 = load i64, ptr %3, align 8
  %14 = icmp sgt i64 %13, 1
  br i1 %14, label %15, label %34

15:                                               ; preds = %1
  %16 = load ptr, ptr %2, align 8
  %17 = getelementptr inbounds nuw %struct.avifFraction, ptr %16, i32 0, i32 0
  %18 = load i32, ptr %17, align 4
  %19 = sext i32 %18 to i64
  %20 = load i64, ptr %3, align 8
  %21 = sdiv i64 %19, %20
  %22 = trunc i64 %21 to i32
  %23 = load ptr, ptr %2, align 8
  %24 = getelementptr inbounds nuw %struct.avifFraction, ptr %23, i32 0, i32 0
  store i32 %22, ptr %24, align 4
  %25 = load ptr, ptr %2, align 8
  %26 = getelementptr inbounds nuw %struct.avifFraction, ptr %25, i32 0, i32 1
  %27 = load i32, ptr %26, align 4
  %28 = sext i32 %27 to i64
  %29 = load i64, ptr %3, align 8
  %30 = sdiv i64 %28, %29
  %31 = trunc i64 %30 to i32
  %32 = load ptr, ptr %2, align 8
  %33 = getelementptr inbounds nuw %struct.avifFraction, ptr %32, i32 0, i32 1
  store i32 %31, ptr %33, align 4
  br label %34

34:                                               ; preds = %15, %1
  ret void
}