; Function Attrs: nofree norecurse nosync nounwind memory(argmem: readwrite) uwtable
define hidden void @avifFractionSimplify(ptr nocapture noundef %0) local_unnamed_addr #7 {
  %2 = load i32, ptr %0, align 4
  %3 = sext i32 %2 to i64
  %4 = getelementptr inbounds nuw i8, ptr %0, i64 4
  %5 = load i32, ptr %4, align 4
  %6 = sext i32 %5 to i64
  %spec.select.i = tail call i64 @llvm.abs.i64(i64 %3, i1 true)
  %.not16.i = icmp eq i32 %5, 0
  br i1 %.not16.i, label %calcGCD.exit, label %.lr.ph.preheader.i

.lr.ph.preheader.i:                               ; preds = %1
  %.010.i = tail call i64 @llvm.abs.i64(i64 %6, i1 true)
  br label %.lr.ph.i

.lr.ph.i:                                         ; preds = %.lr.ph.i, %.lr.ph.preheader.i
  %.118.i = phi i64 [ %.11117.i, %.lr.ph.i ], [ %spec.select.i, %.lr.ph.preheader.i ]
  %.11117.i = phi i64 [ %7, %.lr.ph.i ], [ %.010.i, %.lr.ph.preheader.i ]
  %7 = urem i64 %.118.i, %.11117.i
  %.not.i = icmp eq i64 %7, 0
  br i1 %.not.i, label %calcGCD.exit, label %.lr.ph.i, !llvm.loop !4

calcGCD.exit:                                     ; preds = %.lr.ph.i, %1
  %.1.lcssa.i = phi i64 [ %spec.select.i, %1 ], [ %.11117.i, %.lr.ph.i ]
  %8 = icmp ugt i64 %.1.lcssa.i, 1
  br i1 %8, label %9, label %14

9:                                                ; preds = %calcGCD.exit
  %10 = sdiv i64 %3, %.1.lcssa.i
  %11 = trunc nsw i64 %10 to i32
  store i32 %11, ptr %0, align 4
  %12 = sdiv i64 %6, %.1.lcssa.i
  %13 = trunc nsw i64 %12 to i32
  store i32 %13, ptr %4, align 4
  br label %14

14:                                               ; preds = %9, %calcGCD.exit
  ret void
}